target datalayout = "e-m:e-p270:32:32-p271:32:32-p272:64:64-i64:64-i128:128-f80:128-n8:16:32:64-S128"
target triple = "x86_64-unknown-linux-gnu"

%"struct.ue2::CompileContext" = type { i8, i8, %"struct.ue2::target_t", %"struct.ue2::Grey" }
%"struct.ue2::target_t" = type { i32, i64 }
%"struct.ue2::Grey" = type <{ i8, i8, i8, i8, i8, i8, i8, i8, i8, i8, i8, i8, i8, i8, i8, i8, i8, i8, i8, i8, i8, i8, i8, i8, i8, [3 x i8], i32, i8, i8, i8, i8, i32, i32, i8, i8, i8, i8, i8, i8, i8, i8, i8, i8, i8, i8, i8, i8, i8, i8, i8, i8, i8, i8, i8, [3 x i8], i32, i32, i32, i32, i32, i32, i32, i32, i32, i8, i8, i8, i8, i8, i8, i8, i8, i8, i8, i8, i8, i32, i32, i32, i8, i8, i8, i8, i8, i8, [2 x i8], i32, i8, i8, [2 x i8], i32, i8, i8, i8, i8, i32, i32, i32, i32, i32, i32, i8, [3 x i8], i32, i32, [4 x i8], %"class.std::__cxx11::basic_string", i32, i32, i32, i32, i32, i32, i32, i32, i32, i32, i32, i32, i32, i32, i32, i32, i32, [4 x i8] }>
%"class.std::__cxx11::basic_string" = type { %"struct.std::__cxx11::basic_string<char>::_Alloc_hider", i64, %union.anon }
%"struct.std::__cxx11::basic_string<char>::_Alloc_hider" = type { ptr }
%union.anon = type { i64, [8 x i8] }

; Function Attrs: mustprogress uwtable
define hidden noundef i64 @_ZN3ue223hwlmFloodProneSuffixLenEmRKNS_14CompileContextE(i64 noundef %numLiterals, ptr noundef nonnull align 8 dereferenceable(320) %cc) #1 {
entry:
  %retval = alloca i64, align 8
  %numLiterals.addr = alloca i64, align 8
  %cc.addr = alloca ptr, align 8
  %NO_LIMIT = alloca i64, align 8
  store i64 %numLiterals, ptr %numLiterals.addr, align 8
  store ptr %cc, ptr %cc.addr, align 8
  store i64 -1, ptr %NO_LIMIT, align 8
  br label %do.body

do.body:                                          ; preds = %entry
  br label %do.end

do.end:                                           ; preds = %do.body
  %0 = load ptr, ptr %cc.addr, align 8
  %grey = getelementptr inbounds %"struct.ue2::CompileContext", ptr %0, i32 0, i32 3
  %allowNoodle = getelementptr inbounds %"struct.ue2::Grey", ptr %grey, i32 0, i32 22
  %1 = load i8, ptr %allowNoodle, align 2
  %tobool = trunc i8 %1 to i1
  br i1 %tobool, label %land.lhs.true, label %if.end

land.lhs.true:                                    ; preds = %do.end
  %2 = load i64, ptr %numLiterals.addr, align 8
  %cmp = icmp ule i64 %2, 1
  br i1 %cmp, label %if.then, label %if.end

if.then:                                          ; preds = %land.lhs.true
  br label %do.body1

do.body1:                                         ; preds = %if.then
  br label %do.end2

do.end2:                                          ; preds = %do.body1
  store i64 -1, ptr %retval, align 8
  br label %return

if.end:                                           ; preds = %land.lhs.true, %do.end
  %3 = load ptr, ptr %cc.addr, align 8
  %grey3 = getelementptr inbounds %"struct.ue2::CompileContext", ptr %3, i32 0, i32 3
  %fdrAllowTeddy = getelementptr inbounds %"struct.ue2::Grey", ptr %grey3, i32 0, i32 23
  %4 = load i8, ptr %fdrAllowTeddy, align 1
  %tobool4 = trunc i8 %4 to i1
  br i1 %tobool4, label %if.then5, label %if.end17

if.then5:                                         ; preds = %if.end
  %5 = load i64, ptr %numLiterals.addr, align 8
  %cmp6 = icmp ule i64 %5, 48
  br i1 %cmp6, label %if.then7, label %if.end10

if.then7:                                         ; preds = %if.then5
  br label %do.body8

do.body8:                                         ; preds = %if.then7
  br label %do.end9

do.end9:                                          ; preds = %do.body8
  store i64 3, ptr %retval, align 8
  br label %return

if.end10:                                         ; preds = %if.then5
  %6 = load ptr, ptr %cc.addr, align 8
  %target_info = getelementptr inbounds %"struct.ue2::CompileContext", ptr %6, i32 0, i32 2
  %call = call noundef zeroext i1 @_ZNK3ue28target_t8has_avx2Ev(ptr noundef nonnull align 8 dereferenceable(16) %target_info)
  br i1 %call, label %land.lhs.true11, label %if.end16

land.lhs.true11:                                  ; preds = %if.end10
  %7 = load i64, ptr %numLiterals.addr, align 8
  %cmp12 = icmp ule i64 %7, 96
  br i1 %cmp12, label %if.then13, label %if.end16

if.then13:                                        ; preds = %land.lhs.true11
  br label %do.body14

do.body14:                                        ; preds = %if.then13
  br label %do.end15

do.end15:                                         ; preds = %do.body14
  store i64 3, ptr %retval, align 8
  br label %return

if.end16:                                         ; preds = %land.lhs.true11, %if.end10
  br label %if.end17

if.end17:                                         ; preds = %if.end16, %if.end
  br label %do.body18

do.body18:                                        ; preds = %if.end17
  br label %do.end19

do.end19:                                         ; preds = %do.body18
  store i64 3, ptr %retval, align 8
  br label %return

return:                                           ; preds = %do.end19, %do.end15, %do.end9, %do.end2
  %8 = load i64, ptr %retval, align 8
  ret i64 %8
}