; Function Attrs: mustprogress uwtable
define hidden noundef i64 @_ZN3ue223hwlmFloodProneSuffixLenEmRKNS_14CompileContextE(i64 noundef %numLiterals, ptr noundef nonnull align 8 dereferenceable(320) %cc) local_unnamed_addr #3 {
entry:
  %allowNoodle = getelementptr inbounds i8, ptr %cc, i64 46
  %0 = load i8, ptr %allowNoodle, align 2
  %1 = and i8 %0, 1
  %tobool = icmp ne i8 %1, 0
  %cmp = icmp ult i64 %numLiterals, 2
  %or.cond = and i1 %cmp, %tobool
  br i1 %or.cond, label %return, label %if.end

if.end:                                           ; preds = %entry
  %fdrAllowTeddy = getelementptr inbounds i8, ptr %cc, i64 47
  %2 = load i8, ptr %fdrAllowTeddy, align 1
  %3 = and i8 %2, 1
  %tobool4.not = icmp eq i8 %3, 0
  %cmp6 = icmp ult i64 %numLiterals, 49
  %or.cond6 = or i1 %cmp6, %tobool4.not
  br i1 %or.cond6, label %return, label %if.end10

if.end10:                                         ; preds = %if.end
  %target_info = getelementptr inbounds i8, ptr %cc, i64 8
  %call = tail call noundef zeroext i1 @_ZNK3ue28target_t8has_avx2Ev(ptr noundef nonnull align 8 dereferenceable(16) %target_info)
  br label %return

return:                                           ; preds = %if.end10, %if.end, %entry
  %retval.0 = phi i64 [ -1, %entry ], [ 3, %if.end10 ], [ 3, %if.end ]
  ret i64 %retval.0
}